target datalayout = "e-m:e-p270:32:32-p271:32:32-p272:64:64-i64:64-i128:128-f80:128-n8:16:32:64-S128"
target triple = "x86_64-pc-linux-gnu"

%struct.IDAMemRec = type { ptr, double, ptr, ptr, i32, double, double, ptr, i32, i32, ptr, ptr, i32, i32, [6 x ptr], [6 x double], [6 x double], [6 x double], [6 x double], [6 x double], ptr, ptr, ptr, ptr, ptr, ptr, ptr, ptr, ptr, ptr, ptr, ptr, ptr, ptr, ptr, ptr, ptr, double, ptr, ptr, i32, i32, i32, i32, i32, i32, i32, i32, double, double, double, i32, double, i32, i32, i32, i32, i32, double, double, double, double, double, double, double, double, double, double, double, double, double, double, double, double, i32, i32, i32, i32, i64, double, double, double, double, double, double, double, double, double, i64, i64, i64, i64, i64, i64, i64, i64, i64, i64, i64, double, i32, i32, i32, i32, i32, ptr, i32, ptr, ptr, ptr, ptr, ptr, ptr, ptr, double, i32, ptr, i32, ptr, ptr, double, double, double, ptr, ptr, ptr, double, double, i32, i32, i64, ptr, i32, [6 x double], [5 x double], [6 x ptr], [6 x ptr] }

@.str = private unnamed_addr constant [112 x i8] c"generated/home/dtcxzyw/WorkSpace/Projects/compilers/llvm-opt-benchmark/bench/sundials/sundials/src/ida/ida_ls.c\00", align 1
@.str.1 = private unnamed_addr constant [27 x i8] c"Integrator memory is NULL.\00", align 1
@.str.30 = private unnamed_addr constant [30 x i8] c"Linear solver memory is NULL.\00", align 1

; Function Attrs: nounwind uwtable
define i32 @idaLs_AccessLMem(ptr noundef %0, ptr noundef %1, ptr noundef %2, ptr noundef %3) #0 {
  %5 = alloca i32, align 4
  %6 = alloca ptr, align 8
  %7 = alloca ptr, align 8
  %8 = alloca ptr, align 8
  %9 = alloca ptr, align 8
  store ptr %0, ptr %6, align 8, !tbaa !3
  store ptr %1, ptr %7, align 8, !tbaa !117
  store ptr %2, ptr %8, align 8, !tbaa !119
  store ptr %3, ptr %9, align 8, !tbaa !121
  %10 = load ptr, ptr %6, align 8, !tbaa !3
  %11 = icmp eq ptr %10, null
  br i1 %11, label %12, label %14

12:                                               ; preds = %4
  %13 = load ptr, ptr %7, align 8, !tbaa !117
  call void (ptr, i32, i32, ptr, ptr, ptr, ...) @IDAProcessError(ptr noundef null, i32 noundef -1, i32 noundef 1766, ptr noundef %13, ptr noundef @.str, ptr noundef @.str.1)
  store i32 -1, ptr %5, align 4
  br label %32

14:                                               ; preds = %4
  %15 = load ptr, ptr %6, align 8, !tbaa !3
  %16 = load ptr, ptr %8, align 8, !tbaa !119
  store ptr %15, ptr %16, align 8, !tbaa !11
  %17 = load ptr, ptr %8, align 8, !tbaa !119
  %18 = load ptr, ptr %17, align 8, !tbaa !11
  %19 = getelementptr inbounds nuw %struct.IDAMemRec, ptr %18, i32 0, i32 113
  %20 = load ptr, ptr %19, align 8, !tbaa !75
  %21 = icmp eq ptr %20, null
  br i1 %21, label %22, label %26

22:                                               ; preds = %14
  %23 = load ptr, ptr %8, align 8, !tbaa !119
  %24 = load ptr, ptr %23, align 8, !tbaa !11
  %25 = load ptr, ptr %7, align 8, !tbaa !117
  call void (ptr, i32, i32, ptr, ptr, ptr, ...) @IDAProcessError(ptr noundef %24, i32 noundef -2, i32 noundef 1773, ptr noundef %25, ptr noundef @.str, ptr noundef @.str.30)
  store i32 -2, ptr %5, align 4
  br label %32

26:                                               ; preds = %14
  %27 = load ptr, ptr %8, align 8, !tbaa !119
  %28 = load ptr, ptr %27, align 8, !tbaa !11
  %29 = getelementptr inbounds nuw %struct.IDAMemRec, ptr %28, i32 0, i32 113
  %30 = load ptr, ptr %29, align 8, !tbaa !75
  %31 = load ptr, ptr %9, align 8, !tbaa !121
  store ptr %30, ptr %31, align 8, !tbaa !45
  store i32 0, ptr %5, align 4
  br label %32

32:                                               ; preds = %26, %22, %12
  %33 = load i32, ptr %5, align 4
  ret i32 %33
}