; Function Attrs: nounwind uwtable
define range(i32 -2, 1) i32 @idaLs_AccessLMem(ptr noundef %0, ptr noundef %1, ptr noundef writeonly captures(none) %2, ptr noundef writeonly captures(none) %3) local_unnamed_addr #0 {
  %5 = icmp eq ptr %0, null
  br i1 %5, label %6, label %7

6:                                                ; preds = %4
  tail call void (ptr, i32, i32, ptr, ptr, ptr, ...) @IDAProcessError(ptr noundef null, i32 noundef -1, i32 noundef 1766, ptr noundef %1, ptr noundef nonnull @.str, ptr noundef nonnull @.str.1) #13
  br label %13

7:                                                ; preds = %4
  store ptr %0, ptr %2, align 8, !tbaa !104
  %8 = getelementptr inbounds nuw i8, ptr %0, i64 1048
  %9 = load ptr, ptr %8, align 8, !tbaa !65
  %10 = icmp eq ptr %9, null
  br i1 %10, label %11, label %12

11:                                               ; preds = %7
  tail call void (ptr, i32, i32, ptr, ptr, ptr, ...) @IDAProcessError(ptr noundef nonnull %0, i32 noundef -2, i32 noundef 1773, ptr noundef %1, ptr noundef nonnull @.str, ptr noundef nonnull @.str.30) #13
  br label %13

12:                                               ; preds = %7
  store ptr %9, ptr %3, align 8, !tbaa !106
  br label %13

13:                                               ; preds = %12, %11, %6
  %.0 = phi i32 [ -1, %6 ], [ -2, %11 ], [ 0, %12 ]
  ret i32 %.0
}